target datalayout = "e-m:e-p270:32:32-p271:32:32-p272:64:64-i64:64-i128:128-f80:128-n8:16:32:64-S128"
target triple = "x86_64-pc-linux-gnu"

%struct.PLpgSQL_nsitem = type { i32, i32, ptr, [0 x i8] }

; Function Attrs: nounwind uwtable
define hidden ptr @plpgsql_ns_find_nearest_loop(ptr noundef %0) #0 {
  %2 = alloca ptr, align 8
  %3 = alloca ptr, align 8
  store ptr %0, ptr %3, align 8
  br label %4

4:                                                ; preds = %19, %1
  %5 = load ptr, ptr %3, align 8
  %6 = icmp ne ptr %5, null
  br i1 %6, label %7, label %23

7:                                                ; preds = %4
  %8 = load ptr, ptr %3, align 8
  %9 = getelementptr inbounds nuw %struct.PLpgSQL_nsitem, ptr %8, i32 0, i32 0
  %10 = load i32, ptr %9, align 8
  %11 = icmp eq i32 %10, 0
  br i1 %11, label %12, label %19

12:                                               ; preds = %7
  %13 = load ptr, ptr %3, align 8
  %14 = getelementptr inbounds nuw %struct.PLpgSQL_nsitem, ptr %13, i32 0, i32 1
  %15 = load i32, ptr %14, align 4
  %16 = icmp eq i32 %15, 1
  br i1 %16, label %17, label %19

17:                                               ; preds = %12
  %18 = load ptr, ptr %3, align 8
  store ptr %18, ptr %2, align 8
  br label %24

19:                                               ; preds = %12, %7
  %20 = load ptr, ptr %3, align 8
  %21 = getelementptr inbounds nuw %struct.PLpgSQL_nsitem, ptr %20, i32 0, i32 2
  %22 = load ptr, ptr %21, align 8
  store ptr %22, ptr %3, align 8
  br label %4, !llvm.loop !11

23:                                               ; preds = %4
  store ptr null, ptr %2, align 8
  br label %24

24:                                               ; preds = %23, %17
  %25 = load ptr, ptr %2, align 8
  ret ptr %25
}