; Function Attrs: nofree norecurse nosync nounwind memory(read, inaccessiblemem: none) uwtable
define hidden noundef ptr @plpgsql_ns_find_nearest_loop(ptr noundef readonly captures(address_is_null, ret: address, provenance) %0) local_unnamed_addr #9 {
  %.not7 = icmp eq ptr %0, null
  br i1 %.not7, label %._crit_edge, label %.lr.ph

.lr.ph:                                           ; preds = %1, %8
  %.08 = phi ptr [ %10, %8 ], [ %0, %1 ]
  %2 = load i32, ptr %.08, align 8
  %3 = icmp eq i32 %2, 0
  br i1 %3, label %4, label %8

4:                                                ; preds = %.lr.ph
  %5 = getelementptr inbounds nuw i8, ptr %.08, i64 4
  %6 = load i32, ptr %5, align 4
  %7 = icmp eq i32 %6, 1
  br i1 %7, label %._crit_edge, label %8

8:                                                ; preds = %4, %.lr.ph
  %9 = getelementptr inbounds nuw i8, ptr %.08, i64 8
  %10 = load ptr, ptr %9, align 8
  %.not = icmp eq ptr %10, null
  br i1 %.not, label %._crit_edge, label %.lr.ph, !llvm.loop !8

._crit_edge:                                      ; preds = %4, %8, %1
  %.0.lcssa = phi ptr [ null, %1 ], [ null, %8 ], [ %.08, %4 ]
  ret ptr %.0.lcssa
}